; Function Attrs: mustprogress nofree norecurse nosync nounwind willreturn memory(read, argmem: readwrite, inaccessiblemem: none) uwtable
define void @Gia_ObjSetPhase(ptr noundef readonly captures(none) %0, ptr noundef %1) local_unnamed_addr #13 {
  %.val = load i64, ptr %1, align 4
  %3 = and i64 %.val, 2147483648
  %.not.i = icmp eq i64 %3, 0
  %4 = and i64 %.val, 536870911
  %5 = icmp ne i64 %4, 536870911
  %narrow.i = and i1 %.not.i, %5
  br i1 %narrow.i, label %6, label %60

6:                                                ; preds = %2
  %7 = sub nsw i64 0, %4
  %8 = getelementptr inbounds %struct.Gia_Obj_t_, ptr %1, i64 %7
  %.val33 = load i64, ptr %8, align 4
  %9 = lshr i64 %.val33, 63
  %10 = trunc nuw nsw i64 %9 to i32
  %11 = trunc i64 %.val to i32
  %12 = lshr i32 %11, 29
  %13 = and i32 %12, 1
  %14 = xor i32 %13, %10
  %15 = lshr i64 %.val, 32
  %16 = and i64 %15, 536870911
  %17 = sub nsw i64 0, %16
  %18 = getelementptr inbounds %struct.Gia_Obj_t_, ptr %1, i64 %17
  %.val34 = load i64, ptr %18, align 4
  %19 = lshr i64 %.val34, 63
  %20 = trunc nuw nsw i64 %19 to i32
  %21 = lshr i64 %.val, 61
  %22 = trunc nuw nsw i64 %21 to i32
  %23 = and i32 %22, 1
  %24 = xor i32 %23, %20
  %25 = getelementptr i8, ptr %0, i64 32
  %.val40 = load ptr, ptr %25, align 8
  %26 = getelementptr i8, ptr %0, i64 40
  %.val41 = load ptr, ptr %26, align 8
  %.not.i.i = icmp eq ptr %.val41, null
  br i1 %.not.i.i, label %Gia_ObjIsXor.exit, label %Gia_ObjIsMux.exit

Gia_ObjIsMux.exit:                                ; preds = %6
  %27 = ptrtoint ptr %1 to i64
  %28 = ptrtoint ptr %.val40 to i64
  %29 = sub i64 %27, %28
  %30 = sdiv exact i64 %29, 12
  %sext.i = shl i64 %30, 32
  %31 = ashr exact i64 %sext.i, 30
  %32 = getelementptr inbounds i8, ptr %.val41, i64 %31
  %33 = load i32, ptr %32, align 4
  %.not = icmp eq i32 %33, 0
  br i1 %.not, label %Gia_ObjIsXor.exit, label %Gia_ObjFaninC2.exit

Gia_ObjFaninC2.exit:                              ; preds = %Gia_ObjIsMux.exit
  %34 = ashr i32 %33, 1
  %35 = sext i32 %34 to i64
  %36 = getelementptr inbounds %struct.Gia_Obj_t_, ptr %.val40, i64 %35
  %.val35 = load i64, ptr %36, align 4
  %37 = lshr i64 %.val35, 63
  %38 = trunc nuw nsw i64 %37 to i32
  %39 = and i32 %33, 1
  %40 = icmp ne i32 %39, %38
  %41 = icmp ne i32 %23, %20
  %or.cond = select i1 %40, i1 %41, i1 false
  %42 = icmp eq i32 %13, %10
  %.not32 = select i1 %40, i1 true, i1 %42
  %43 = select i1 %.not32, i64 0, i64 -9223372036854775808
  %44 = select i1 %or.cond, i64 -9223372036854775808, i64 %43
  %45 = and i64 %.val, 9223372034707292159
  %46 = or disjoint i64 %44, %45
  br label %71

Gia_ObjIsXor.exit:                                ; preds = %Gia_ObjIsMux.exit, %6
  %47 = and i32 %11, 536870911
  %48 = trunc nuw i64 %15 to i32
  %49 = and i32 %48, 536870911
  %.not53 = icmp samesign ult i32 %47, %49
  %50 = and i64 %.val, 9223372034707292159
  br i1 %.not53, label %51, label %Gia_ObjIsXor.exit.thread

51:                                               ; preds = %Gia_ObjIsXor.exit
  %52 = xor i32 %24, %14
  %53 = zext nneg i32 %52 to i64
  %54 = shl nuw i64 %53, 63
  %55 = or disjoint i64 %54, %50
  br label %71

Gia_ObjIsXor.exit.thread:                         ; preds = %Gia_ObjIsXor.exit
  %56 = and i32 %24, %14
  %57 = zext nneg i32 %56 to i64
  %58 = shl nuw i64 %57, 63
  %59 = or disjoint i64 %58, %50
  br label %71

60:                                               ; preds = %2
  %.not.i49 = icmp ne i64 %3, 0
  %narrow.i50 = and i1 %.not.i49, %5
  br i1 %narrow.i50, label %61, label %69

61:                                               ; preds = %60
  %62 = sub nsw i64 0, %4
  %63 = getelementptr inbounds %struct.Gia_Obj_t_, ptr %1, i64 %62
  %.val36 = load i64, ptr %63, align 4
  %64 = shl i64 %.val, 34
  %65 = xor i64 %.val36, %64
  %66 = and i64 %65, -9223372036854775808
  %67 = and i64 %.val, 9223372036854775807
  %68 = or disjoint i64 %66, %67
  br label %71

69:                                               ; preds = %60
  %70 = and i64 %.val, 9223372036854775807
  br label %71

71:                                               ; preds = %61, %69, %Gia_ObjFaninC2.exit, %Gia_ObjIsXor.exit.thread, %51
  %.sink = phi i64 [ %68, %61 ], [ %70, %69 ], [ %46, %Gia_ObjFaninC2.exit ], [ %59, %Gia_ObjIsXor.exit.thread ], [ %55, %51 ]
  store i64 %.sink, ptr %1, align 4
  ret void
}